; Function Attrs: cold nounwind optsize uwtable
define internal range(i32 -12, 1) i32 @cdtoons_decode_init(ptr noundef captures(none) initializes((136, 140)) %0) #0 {
  %2 = getelementptr inbounds nuw i8, ptr %0, i64 32
  %3 = load ptr, ptr %2, align 8, !tbaa !4
  %4 = getelementptr inbounds nuw i8, ptr %0, i64 136
  store i32 11, ptr %4, align 8, !tbaa !27
  %5 = getelementptr inbounds nuw i8, ptr %3, i64 8
  store i16 0, ptr %5, align 8, !tbaa !28
  %6 = tail call ptr @av_frame_alloc() #8
  store ptr %6, ptr %3, align 8, !tbaa !32
  %.not = icmp eq ptr %6, null
  %. = select i1 %.not, i32 -12, i32 0
  ret i32 %.
}